Certificate:
    Data:
        Version: 3 (0x2)
        Serial Number:
            50:5e:06:78:90:d8:9a:83:89:96:1f:58:e1:29:e4:f2
        Signature Algorithm: ecdsa-with-SHA512
        Issuer: CN=Easy-RSA CA
        Validity
            Not Before: Mar 15 09:04:02 2021 GMT
            Not After : Feb 28 09:04:02 2024 GMT
        Subject: CN=client1
        Subject Public Key Info:
            Public Key Algorithm: id-ecPublicKey
                Public-Key: (384 bit)
                pub:
                    04:48:3d:ce:b2:03:25:be:9c:7e:8b:e6:a4:1a:17:
                    0d:09:d1:79:e7:37:23:de:f3:d5:10:e9:85:85:7c:
                    85:3d:0b:c2:5d:61:58:dd:85:58:a5:6f:eb:61:d3:
                    aa:40:bd:5d:4d:ab:a7:88:c6:d3:08:6c:19:c9:3f:
                    a9:28:78:7f:45:e9:9e:5e:4d:ba:0e:bc:95:8b:40:
                    cc:32:99:af:67:20:9c:f4:a3:6b:0b:53:f0:aa:7c:
                    aa:f7:a5:39:4c:97:ec
                ASN1 OID: secp384r1
                NIST CURVE: P-384
        X509v3 extensions:
            X509v3 Basic Constraints: 
                CA:FALSE
            X509v3 Subject Key Identifier: 
                27:68:2B:C6:2F:61:EA:B3:A0:FC:5A:09:A4:3E:6B:0E:C1:B5:0B:F8
            X509v3 Authority Key Identifier: 
                keyid:4C:9E:FF:27:29:C6:47:3C:0A:CC:88:3B:49:D9:92:55:87:53:E9:7B
                DirName:/CN=Easy-RSA CA
                serial:4E:A6:45:3E:29:76:84:BA:9A:19:57:1B:6A:AB:74:DE:C6:0B:0D:C7

            X509v3 Extended Key Usage: 
                TLS Web Client Authentication
            X509v3 Key Usage: 
                Digital Signature
    Signature Algorithm: ecdsa-with-SHA512
         30:65:02:31:00:db:e6:74:7b:e4:e2:c7:5b:f2:92:bd:78:ef:
         da:ec:ec:6c:66:bf:b3:aa:31:d4:e1:25:35:8a:aa:6b:b1:68:
         b7:e5:bc:0a:02:7c:76:aa:33:4f:fe:d2:f7:db:8b:1f:5b:02:
         30:33:1e:e3:f2:9d:9b:33:a9:4c:8d:ae:89:88:e2:4d:06:d5:
         ac:8a:05:e2:a4:35:25:72:56:85:ba:2c:4b:ee:19:53:68:96:
         8e:47:86:ba:2a:f1:89:53:c7:88:8e:12:74
-----BEGIN CERTIFICATE-----
MIICBjCCAYygAwIBAgIQUF4GeJDYmoOJlh9Y4Snk8jAKBggqhkjOPQQDBDAWMRQw
EgYDVQQDDAtFYXN5LVJTQSBDQTAeFw0yMTAzMTUwOTA0MDJaFw0yNDAyMjgwOTA0
MDJaMBIxEDAOBgNVBAMMB2NsaWVudDEwdjAQBgcqhkjOPQIBBgUrgQQAIgNiAARI
Pc6yAyW+nH6L5qQaFw0J0XnnNyPe89UQ6YWFfIU9C8JdYVjdhVilb+th06pAvV1N
q6eIxtMIbBnJP6koeH9F6Z5eTboOvJWLQMwyma9nIJz0o2sLU/CqfKr3pTlMl+yj
gaIwgZ8wCQYDVR0TBAIwADAdBgNVHQ4EFgQUJ2grxi9h6rOg/FoJpD5rDsG1C/gw
UQYDVR0jBEowSIAUTJ7/JynGRzwKzIg7SdmSVYdT6XuhGqQYMBYxFDASBgNVBAMM
C0Vhc3ktUlNBIENBghROpkU+KXaEupoZVxtqq3TexgsNxzATBgNVHSUEDDAKBggr
BgEFBQcDAjALBgNVHQ8EBAMCB4AwCgYIKoZIzj0EAwQDaAAwZQIxANvmdHvk4sdb
8pK9eO/a7OxsZr+zqjHU4SU1iqprsWi35bwKAnx2qjNP/tL324sfWwIwMx7j8p2b
M6lMja6JiOJNBtWsigXipDUlclaFuixL7hlTaJaOR4a6KvGJU8eIjhJ0
-----END CERTIFICATE-----
